; Function Attrs: mustprogress uwtable
define internal void @_ZN7testing8internal11MatcherBaseIRKSt6vectorISt5tupleIJN12_GLOBAL__N_18FunctionEPKvN4absl13base_internal10ObjectKindEEESaISB_EEE12DescribeImplINSG_11ValuePolicyIPKNS_16MatcherInterfaceISF_EELb1EEEEEvRKSG_PSob(ptr noundef nonnull readonly align 8 captures(none) dereferenceable(24) %0, ptr noundef %1, i1 noundef zeroext %2) #3 align 2 {
  %4 = getelementptr inbounds nuw i8, ptr %0, i64 16
  %.val = load ptr, ptr %4, align 8, !tbaa !22
  %5 = getelementptr i8, ptr %.val, i64 8
  %.val.val = load ptr, ptr %5, align 8, !tbaa !162
  %6 = load ptr, ptr %.val.val, align 8, !tbaa !31
  %. = select i1 %2, i64 24, i64 16
  %7 = getelementptr inbounds nuw i8, ptr %6, i64 %.
  %8 = load ptr, ptr %7, align 8
  tail call void %8(ptr noundef nonnull align 8 dereferenceable(8) %.val.val, ptr noundef %1)
  ret void
}